target datalayout = "e-m:e-p270:32:32-p271:32:32-p272:64:64-i64:64-i128:128-f80:128-n8:16:32:64-S128"
target triple = "x86_64-pc-linux-gnu"

@.str = private unnamed_addr constant [8 x i8] c"ros.oid\00", align 1
@ros_handle = internal global ptr null, align 8
@protocol_table = internal global ptr null, align 8
@ros_oid_dissector_table = internal global ptr null, align 8
@.str.75 = private unnamed_addr constant [36 x i8] c"X.880 OSI Remote Operations Service\00", align 1
@.str.76 = private unnamed_addr constant [4 x i8] c"ROS\00", align 1
@.str.77 = private unnamed_addr constant [4 x i8] c"ros\00", align 1
@proto_ros = internal global i32 0, align 4
@.str.78 = private unnamed_addr constant [19 x i8] c"ROS OID Dissectors\00", align 1

; Function Attrs: null_pointer_is_valid sspstrong uwtable
define hidden void @proto_register_ros() #0 {
  %1 = alloca ptr, align 8
  call void @llvm.lifetime.start.p0(i64 8, ptr %1) #7
  %2 = call i32 @proto_register_protocol(ptr noundef @.str.75, ptr noundef @.str.76, ptr noundef @.str.77)
  store i32 %2, ptr @proto_ros, align 4
  %3 = load i32, ptr @proto_ros, align 4
  %4 = call ptr @register_dissector(ptr noundef @.str.77, ptr noundef @dissect_ros, i32 noundef %3)
  store ptr %4, ptr @ros_handle, align 8
  %5 = load i32, ptr @proto_ros, align 4
  call void @proto_register_field_array(i32 noundef %5, ptr noundef @proto_register_ros.hf, i32 noundef 30)
  call void @proto_register_subtree_array(ptr noundef @proto_register_ros.ett, i32 noundef 19)
  %6 = load i32, ptr @proto_ros, align 4
  %7 = call ptr @expert_register_protocol(i32 noundef %6)
  store ptr %7, ptr %1, align 8
  %8 = load ptr, ptr %1, align 8
  call void @expert_register_field_array(ptr noundef %8, ptr noundef @proto_register_ros.ei, i32 noundef 2)
  %9 = load i32, ptr @proto_ros, align 4
  %10 = call ptr @register_dissector_table(ptr noundef @.str, ptr noundef @.str.78, i32 noundef %9, i32 noundef 26, i32 noundef 0)
  store ptr %10, ptr @ros_oid_dissector_table, align 8
  %11 = call ptr @wmem_epan_scope()
  %12 = call noalias ptr @wmem_map_new(ptr noundef %11, ptr noundef @wmem_str_hash, ptr noundef @g_str_equal)
  store ptr %12, ptr @protocol_table, align 8
  call void @llvm.lifetime.end.p0(i64 8, ptr %1) #7
  ret void
}