; Function Attrs: null_pointer_is_valid sspstrong uwtable
define hidden void @proto_register_ros() local_unnamed_addr #0 {
  %1 = tail call i32 @proto_register_protocol(ptr noundef nonnull @.str.75, ptr noundef nonnull @.str.76, ptr noundef nonnull @.str.77)
  store i32 %1, ptr @proto_ros, align 4
  %2 = tail call ptr @register_dissector(ptr noundef nonnull @.str.77, ptr noundef nonnull @dissect_ros, i32 noundef %1)
  store ptr %2, ptr @ros_handle, align 8
  %3 = load i32, ptr @proto_ros, align 4
  tail call void @proto_register_field_array(i32 noundef %3, ptr noundef nonnull @proto_register_ros.hf, i32 noundef 30)
  tail call void @proto_register_subtree_array(ptr noundef nonnull @proto_register_ros.ett, i32 noundef 19)
  %4 = load i32, ptr @proto_ros, align 4
  %5 = tail call ptr @expert_register_protocol(i32 noundef %4)
  tail call void @expert_register_field_array(ptr noundef %5, ptr noundef nonnull @proto_register_ros.ei, i32 noundef 2)
  %6 = load i32, ptr @proto_ros, align 4
  %7 = tail call ptr @register_dissector_table(ptr noundef nonnull @.str, ptr noundef nonnull @.str.78, i32 noundef %6, i32 noundef 26, i32 noundef 0)
  store ptr %7, ptr @ros_oid_dissector_table, align 8
  %8 = tail call ptr @wmem_epan_scope()
  %9 = tail call noalias ptr @wmem_map_new(ptr noundef %8, ptr noundef nonnull @wmem_str_hash, ptr noundef nonnull @g_str_equal)
  store ptr %9, ptr @protocol_table, align 8
  ret void
}